; ModuleID = '7/559.c'
source_filename = "7/559.c"
target datalayout = "e-m:e-p270:32:32-p271:32:32-p272:64:64-i64:64-f80:128-n8:16:32:64-S128"
target triple = "x86_64-pc-linux-gnu"

@.str = private unnamed_addr constant [3 x i8] c"%s\00", align 1
@.str.1 = private unnamed_addr constant [4 x i8] c"%s\0A\00", align 1

; Function Attrs: noinline nounwind uwtable
define dso_local i32 @main() #0 {
  %1 = alloca i32, align 4
  %2 = alloca [257 x i8], align 16
  %3 = alloca [257 x i8], align 16
  %4 = alloca [257 x i8], align 16
  %5 = alloca i8*, align 8
  %6 = alloca i32, align 4
  store i32 0, i32* %1, align 4
  %7 = getelementptr inbounds [257 x i8], [257 x i8]* %2, i64 0, i64 0
  %8 = call i32 (i8*, ...) bitcast (i32 (...)* @gets to i32 (i8*, ...)*)(i8* %7)
  %9 = getelementptr inbounds [257 x i8], [257 x i8]* %3, i64 0, i64 0
  %10 = call i32 (i8*, ...) bitcast (i32 (...)* @gets to i32 (i8*, ...)*)(i8* %9)
  %11 = getelementptr inbounds [257 x i8], [257 x i8]* %4, i64 0, i64 0
  %12 = call i32 (i8*, ...) bitcast (i32 (...)* @gets to i32 (i8*, ...)*)(i8* %11)
  %13 = getelementptr inbounds [257 x i8], [257 x i8]* %2, i64 0, i64 0
  %14 = getelementptr inbounds [257 x i8], [257 x i8]* %3, i64 0, i64 0
  %15 = call i8* @strstr(i8* %13, i8* %14) #3
  store i8* %15, i8** %5, align 8
  %16 = load i8*, i8** %5, align 8
  %17 = icmp ne i8* %16, null
  br i1 %17, label %18, label %37

18:                                               ; preds = %0
  %19 = load i8*, i8** %5, align 8
  %20 = getelementptr inbounds [257 x i8], [257 x i8]* %2, i64 0, i64 0
  %21 = ptrtoint i8* %19 to i64
  %22 = ptrtoint i8* %20 to i64
  %23 = sub i64 %21, %22
  %24 = trunc i64 %23 to i32
  store i32 %24, i32* %6, align 4
  %25 = load i32, i32* %6, align 4
  %26 = sext i32 %25 to i64
  %27 = getelementptr inbounds [257 x i8], [257 x i8]* %2, i64 0, i64 %26
  store i8 0, i8* %27, align 1
  %28 = getelementptr inbounds [257 x i8], [257 x i8]* %2, i64 0, i64 0
  %29 = call i32 (i8*, ...) @printf(i8* getelementptr inbounds ([3 x i8], [3 x i8]* @.str, i64 0, i64 0), i8* %28)
  %30 = getelementptr inbounds [257 x i8], [257 x i8]* %4, i64 0, i64 0
  %31 = call i32 (i8*, ...) @printf(i8* %30)
  %32 = load i8*, i8** %5, align 8
  %33 = getelementptr inbounds [257 x i8], [257 x i8]* %3, i64 0, i64 0
  %34 = call i64 @strlen(i8* %33) #3
  %35 = getelementptr inbounds i8, i8* %32, i64 %34
  %36 = call i32 (i8*, ...) @printf(i8* getelementptr inbounds ([4 x i8], [4 x i8]* @.str.1, i64 0, i64 0), i8* %35)
  br label %40

37:                                               ; preds = %0
  %38 = getelementptr inbounds [257 x i8], [257 x i8]* %2, i64 0, i64 0
  %39 = call i32 @puts(i8* %38)
  br label %40

40:                                               ; preds = %37, %18
  ret i32 0
}

declare dso_local i32 @gets(...) #1

; Function Attrs: nounwind readonly
declare dso_local i8* @strstr(i8*, i8*) #2

declare dso_local i32 @printf(i8*, ...) #1

; Function Attrs: nounwind readonly
declare dso_local i64 @strlen(i8*) #2

declare dso_local i32 @puts(i8*) #1


!llvm.module.flags = !{!0}
!llvm.ident = !{!1}

!0 = !{i32 1, !"wchar_size", i32 4}
!1 = !{!"clang version 10.0.0-4ubuntu1 "}
